; Function Attrs: mustprogress nounwind uwtable
define dso_local void @_ZN15cmInstalledFile8PropertyD2Ev(ptr noundef nonnull readonly align 8 captures(none) dereferenceable(24) %0) unnamed_addr #5 align 2 personality ptr @__gxx_personality_v0 {
  %2 = load ptr, ptr %0, align 8, !tbaa !28
  %3 = getelementptr inbounds nuw i8, ptr %0, i64 8
  %4 = load ptr, ptr %3, align 8, !tbaa !31
  %.not4.i.i.i.i = icmp eq ptr %2, %4
  br i1 %.not4.i.i.i.i, label %_ZSt8_DestroyIPSt10unique_ptrI29cmCompiledGeneratorExpressionSt14default_deleteIS1_EES4_EvT_S6_RSaIT0_E.exit.i, label %.lr.ph.i.i.i.i

.lr.ph.i.i.i.i:                                   ; preds = %1, %_ZSt8_DestroyISt10unique_ptrI29cmCompiledGeneratorExpressionSt14default_deleteIS1_EEEvPT_.exit.i.i.i.i
  %.05.i.i.i.i = phi ptr [ %6, %_ZSt8_DestroyISt10unique_ptrI29cmCompiledGeneratorExpressionSt14default_deleteIS1_EEEvPT_.exit.i.i.i.i ], [ %2, %1 ]
  %5 = load ptr, ptr %.05.i.i.i.i, align 8, !tbaa !26
  %.not.i.i.i.i.i.i = icmp eq ptr %5, null
  br i1 %.not.i.i.i.i.i.i, label %_ZSt8_DestroyISt10unique_ptrI29cmCompiledGeneratorExpressionSt14default_deleteIS1_EEEvPT_.exit.i.i.i.i, label %_ZNKSt14default_deleteI29cmCompiledGeneratorExpressionEclEPS0_.exit.i.i.i.i.i.i

_ZNKSt14default_deleteI29cmCompiledGeneratorExpressionEclEPS0_.exit.i.i.i.i.i.i: ; preds = %.lr.ph.i.i.i.i
  tail call void @_ZN29cmCompiledGeneratorExpressionD1Ev(ptr noundef nonnull align 8 dereferenceable(360) %5) #26
  tail call void @_ZdlPvm(ptr noundef nonnull %5, i64 noundef 360) #27
  br label %_ZSt8_DestroyISt10unique_ptrI29cmCompiledGeneratorExpressionSt14default_deleteIS1_EEEvPT_.exit.i.i.i.i

_ZSt8_DestroyISt10unique_ptrI29cmCompiledGeneratorExpressionSt14default_deleteIS1_EEEvPT_.exit.i.i.i.i: ; preds = %_ZNKSt14default_deleteI29cmCompiledGeneratorExpressionEclEPS0_.exit.i.i.i.i.i.i, %.lr.ph.i.i.i.i
  store ptr null, ptr %.05.i.i.i.i, align 8, !tbaa !26
  %6 = getelementptr inbounds nuw i8, ptr %.05.i.i.i.i, i64 8
  %.not.i.i.i.i = icmp eq ptr %6, %4
  br i1 %.not.i.i.i.i, label %_ZSt8_DestroyIPSt10unique_ptrI29cmCompiledGeneratorExpressionSt14default_deleteIS1_EES4_EvT_S6_RSaIT0_E.exitthread-pre-split.i, label %.lr.ph.i.i.i.i, !llvm.loop !32

_ZSt8_DestroyIPSt10unique_ptrI29cmCompiledGeneratorExpressionSt14default_deleteIS1_EES4_EvT_S6_RSaIT0_E.exitthread-pre-split.i: ; preds = %_ZSt8_DestroyISt10unique_ptrI29cmCompiledGeneratorExpressionSt14default_deleteIS1_EEEvPT_.exit.i.i.i.i
  %.pr.i = load ptr, ptr %0, align 8, !tbaa !28
  br label %_ZSt8_DestroyIPSt10unique_ptrI29cmCompiledGeneratorExpressionSt14default_deleteIS1_EES4_EvT_S6_RSaIT0_E.exit.i

_ZSt8_DestroyIPSt10unique_ptrI29cmCompiledGeneratorExpressionSt14default_deleteIS1_EES4_EvT_S6_RSaIT0_E.exit.i: ; preds = %_ZSt8_DestroyIPSt10unique_ptrI29cmCompiledGeneratorExpressionSt14default_deleteIS1_EES4_EvT_S6_RSaIT0_E.exitthread-pre-split.i, %1
  %7 = phi ptr [ %.pr.i, %_ZSt8_DestroyIPSt10unique_ptrI29cmCompiledGeneratorExpressionSt14default_deleteIS1_EES4_EvT_S6_RSaIT0_E.exitthread-pre-split.i ], [ %2, %1 ]
  %.not.i.i.i = icmp eq ptr %7, null
  br i1 %.not.i.i.i, label %_ZNSt6vectorISt10unique_ptrI29cmCompiledGeneratorExpressionSt14default_deleteIS1_EESaIS4_EED2Ev.exit, label %8

8:                                                ; preds = %_ZSt8_DestroyIPSt10unique_ptrI29cmCompiledGeneratorExpressionSt14default_deleteIS1_EES4_EvT_S6_RSaIT0_E.exit.i
  %9 = getelementptr inbounds nuw i8, ptr %0, i64 16
  %10 = load ptr, ptr %9, align 8, !tbaa !34
  %11 = ptrtoint ptr %10 to i64
  %12 = ptrtoint ptr %7 to i64
  %13 = sub i64 %11, %12
  tail call void @_ZdlPvm(ptr noundef nonnull %7, i64 noundef %13) #27
  br label %_ZNSt6vectorISt10unique_ptrI29cmCompiledGeneratorExpressionSt14default_deleteIS1_EESaIS4_EED2Ev.exit

_ZNSt6vectorISt10unique_ptrI29cmCompiledGeneratorExpressionSt14default_deleteIS1_EESaIS4_EED2Ev.exit: ; preds = %_ZSt8_DestroyIPSt10unique_ptrI29cmCompiledGeneratorExpressionSt14default_deleteIS1_EES4_EvT_S6_RSaIT0_E.exit.i, %8
  ret void
}